target datalayout = "e-m:e-p270:32:32-p271:32:32-p272:64:64-i64:64-i128:128-f80:128-n8:16:32:64-S128"
target triple = "x86_64-unknown-linux-gnu"

; Function Attrs: nounwind uwtable
define internal i32 @_asn1_check_infinite_end(ptr noundef %p, i64 noundef %len) #0 {
entry:
  %retval = alloca i32, align 4
  %p.addr = alloca ptr, align 8
  %len.addr = alloca i64, align 8
  store ptr %p, ptr %p.addr, align 8
  store i64 %len, ptr %len.addr, align 8
  %0 = load i64, ptr %len.addr, align 8
  %cmp = icmp sle i64 %0, 0
  br i1 %cmp, label %if.then, label %if.else

if.then:                                          ; preds = %entry
  store i32 1, ptr %retval, align 4
  br label %return

if.else:                                          ; preds = %entry
  %1 = load i64, ptr %len.addr, align 8
  %cmp1 = icmp sge i64 %1, 2
  br i1 %cmp1, label %land.lhs.true, label %if.end

land.lhs.true:                                    ; preds = %if.else
  %2 = load ptr, ptr %p.addr, align 8
  %3 = load ptr, ptr %2, align 8
  %arrayidx = getelementptr inbounds i8, ptr %3, i64 0
  %4 = load i8, ptr %arrayidx, align 1
  %conv = zext i8 %4 to i32
  %cmp2 = icmp eq i32 %conv, 0
  br i1 %cmp2, label %land.lhs.true4, label %if.end

land.lhs.true4:                                   ; preds = %land.lhs.true
  %5 = load ptr, ptr %p.addr, align 8
  %6 = load ptr, ptr %5, align 8
  %arrayidx5 = getelementptr inbounds i8, ptr %6, i64 1
  %7 = load i8, ptr %arrayidx5, align 1
  %conv6 = zext i8 %7 to i32
  %cmp7 = icmp eq i32 %conv6, 0
  br i1 %cmp7, label %if.then9, label %if.end

if.then9:                                         ; preds = %land.lhs.true4
  %8 = load ptr, ptr %p.addr, align 8
  %9 = load ptr, ptr %8, align 8
  %add.ptr = getelementptr inbounds i8, ptr %9, i64 2
  store ptr %add.ptr, ptr %8, align 8
  store i32 1, ptr %retval, align 4
  br label %return

if.end:                                           ; preds = %land.lhs.true4, %land.lhs.true, %if.else
  br label %if.end10

if.end10:                                         ; preds = %if.end
  store i32 0, ptr %retval, align 4
  br label %return

return:                                           ; preds = %if.end10, %if.then9, %if.then
  %10 = load i32, ptr %retval, align 4
  ret i32 %10
}

; Function Attrs: nounwind uwtable
define hidden i32 @ASN1_check_infinite_end(ptr noundef %p, i64 noundef %len) #0 {
entry:
  %p.addr = alloca ptr, align 8
  %len.addr = alloca i64, align 8
  store ptr %p, ptr %p.addr, align 8
  store i64 %len, ptr %len.addr, align 8
  %0 = load ptr, ptr %p.addr, align 8
  %1 = load i64, ptr %len.addr, align 8
  %call = call i32 @_asn1_check_infinite_end(ptr noundef %0, i64 noundef %1)
  ret i32 %call
}